; Function Attrs: nounwind uwtable
define i32 @evdns_base_count_nameservers(ptr noundef readonly captures(none) %0) local_unnamed_addr #2 {
  %2 = getelementptr inbounds nuw i8, ptr %0, i64 344
  %3 = load ptr, ptr %2, align 8
  %.not = icmp eq ptr %3, null
  br i1 %.not, label %7, label %4

4:                                                ; preds = %1
  %5 = load ptr, ptr getelementptr inbounds nuw (i8, ptr @evthread_lock_fns_, i64 24), align 8
  %6 = tail call i32 %5(i32 noundef 0, ptr noundef nonnull %3) #21
  br label %7

7:                                                ; preds = %4, %1
  %8 = getelementptr inbounds nuw i8, ptr %0, i64 16
  %9 = load ptr, ptr %8, align 8
  %.not14 = icmp eq ptr %9, null
  br i1 %.not14, label %.loopexit, label %.preheader

.preheader:                                       ; preds = %7, %.preheader
  %.010 = phi ptr [ %12, %.preheader ], [ %9, %7 ]
  %.0 = phi i32 [ %10, %.preheader ], [ 0, %7 ]
  %10 = add nuw nsw i32 %.0, 1
  %11 = getelementptr inbounds nuw i8, ptr %.010, i64 280
  %12 = load ptr, ptr %11, align 8
  %.not15 = icmp eq ptr %12, %9
  br i1 %.not15, label %.loopexit, label %.preheader, !llvm.loop !14

.loopexit:                                        ; preds = %.preheader, %7
  %.1 = phi i32 [ 0, %7 ], [ %10, %.preheader ]
  %13 = load ptr, ptr %2, align 8
  %.not16 = icmp eq ptr %13, null
  br i1 %.not16, label %17, label %14

14:                                               ; preds = %.loopexit
  %15 = load ptr, ptr getelementptr inbounds nuw (i8, ptr @evthread_lock_fns_, i64 32), align 8
  %16 = tail call i32 %15(i32 noundef 0, ptr noundef nonnull %13) #21
  br label %17

17:                                               ; preds = %14, %.loopexit
  ret i32 %.1
}